Certificate:
    Data:
        Version: 3 (0x2)
        Serial Number: 1 (0x1)
    Signature Algorithm: sha512WithRSAEncryption
        Issuer: C=CZ, L=Roznov, O=SignEveryThing, CN=Sign Every Thing, s.r.o./emailAddress=set@iol.cz
        Validity
            Not Before: May  8 18:38:00 2015 GMT
            Not After : May  7 18:38:00 2025 GMT
        Subject: C=EN, L=Cambridge, O=ObjectSecurity Ltd., CN=www.objectsecurity.com/emailAddress=info@objectsecurity.com
        Subject Public Key Info:
            Public Key Algorithm: rsaEncryption
                Public-Key: (4096 bit)
                Modulus:
                    00:dd:8c:af:0f:70:10:72:31:84:82:3a:82:83:18:
                    61:50:d9:b4:00:c9:69:08:6f:a2:6f:f4:55:c2:0c:
                    89:99:42:d1:20:3b:f2:57:14:8f:d5:11:2b:e8:99:
                    87:fb:c7:47:da:87:e4:8a:d7:99:18:7a:7e:2f:14:
                    08:45:bb:f2:1c:f0:c6:45:e4:69:58:5f:c6:4b:03:
                    3c:55:7a:8e:cb:81:05:4a:4a:21:ae:ab:eb:0d:f2:
                    03:67:6e:92:b4:04:8c:54:d9:a0:8c:30:56:21:12:
                    dc:3e:b9:cd:41:9a:f3:35:f5:07:c3:12:08:ef:5d:
                    79:6e:44:3a:71:94:2b:2d:ed:e0:8e:4b:99:b9:7a:
                    2c:ed:05:0a:7f:6e:b4:ca:a7:1d:2e:e3:0f:7d:f4:
                    b4:f6:9b:15:35:67:a2:8a:fa:31:02:68:2f:fd:84:
                    ee:76:4b:b0:77:3a:bd:71:88:37:09:7b:fd:ed:1a:
                    4e:00:f6:5d:12:22:96:d1:7d:7b:95:2e:3b:17:c1:
                    1f:93:b2:58:b3:fe:4b:79:04:44:1a:15:55:3f:75:
                    8a:0e:63:a7:21:e4:ad:1d:57:57:7c:3e:90:ec:46:
                    ad:10:e3:31:3e:62:fd:be:65:a7:8e:1e:55:47:ac:
                    c2:1f:b2:32:7e:ab:96:db:e0:00:1a:0f:fd:eb:dd:
                    a2:50:d9:e1:c1:ed:d4:a7:9e:0e:1a:b7:3b:5e:7d:
                    59:89:56:79:0f:a7:cc:68:0e:93:36:f9:5c:c5:d5:
                    9d:51:f2:c4:30:49:f3:cf:c8:bb:7d:cd:bd:e6:47:
                    e0:df:50:92:64:81:4f:a1:ad:55:d7:0d:22:8a:09:
                    aa:9d:cb:5f:1a:f5:56:75:c1:7c:a5:71:66:6a:61:
                    17:79:35:81:3e:34:a0:1a:85:4a:39:5a:28:73:c4:
                    6a:18:dd:f6:0e:87:2b:e2:be:36:92:56:0c:0d:7e:
                    07:10:28:2b:85:8e:38:a2:b8:5a:49:18:8b:02:df:
                    78:1c:00:cd:62:25:66:2b:ff:40:24:35:58:c3:76:
                    35:94:c7:ce:d7:96:58:91:72:8c:26:18:ba:59:90:
                    02:64:dc:31:28:a2:4d:0b:5d:35:fc:9a:a1:89:1a:
                    e1:0b:33:50:ed:44:1b:1c:be:27:e2:ad:34:98:6f:
                    d8:12:bb:8f:81:53:9f:ba:7a:4f:b7:1d:7e:2c:6f:
                    71:09:31:c8:15:cc:2c:f7:e0:45:be:b4:c1:c8:7e:
                    2d:63:55:c3:ae:aa:07:bd:1f:5b:34:36:5e:76:16:
                    13:37:56:91:bd:5b:b7:5d:4c:c7:de:4e:8f:4b:44:
                    4c:81:f1:ef:14:ea:58:07:13:ec:dd:08:eb:cf:a6:
                    22:1b:f3
                Exponent: 65537 (0x10001)
        X509v3 extensions:
            X509v3 Authority Key Identifier: 
                keyid:3F:C8:84:F4:60:E1:6C:B2:9C:77:AA:00:AA:94:75:7D:92:10:9F:6C

            X509v3 Extended Key Usage: 
                TLS Web Server Authentication, TLS Web Client Authentication, Microsoft Server Gated Crypto, Netscape Server Gated Crypto
            X509v3 Basic Constraints: critical
                CA:FALSE
    Signature Algorithm: sha512WithRSAEncryption
         7a:ed:81:a0:ea:50:e2:66:a6:3f:66:6c:d8:75:9d:96:dc:0e:
         f4:67:54:18:cb:8f:08:22:08:fa:2f:14:6e:52:c7:07:9b:69:
         7c:5b:1a:98:3b:b2:e8:44:01:19:5d:fd:49:25:9e:46:c7:18:
         ca:78:23:ed:25:6c:61:52:a1:7d:0e:f0:73:2d:16:39:f7:0e:
         b0:6d:f5:02:b9:57:8d:f8:de:cb:b2:48:e4:ae:f1:ea:b3:00:
         e2:1f:1a:34:65:19:d1:65:df:3a:21:60:1f:de:04:d2:6b:a6:
         7c:03:c3:4c:97:3a:77:3a:f7:60:84:9c:57:1a:78:f1:ec:af:
         84:a9:57:e8:bd:77:9c:78:fe:e4:97:55:47:87:21:5f:e2:fa:
         e5:f7:75:10:50:92:dc:40:7d:37:fb:9a:f8:59:c2:f6:10:d8:
         28:90:5d:e4:a3:75:0e:b1:1f:1c:7b:01:0c:f2:ec:51:0d:ea:
         d0:9d:ce:3e:bb:51:24:04:62:10:75:fd:61:63:11:40:a7:ec:
         2b:c1:66:7c:19:a8:0e:8b:11:c0:03:78:28:12:8d:e5:09:53:
         a4:b1:ce:0a:dd:69:95:77:64:80:40:f9:0d:27:ae:71:18:63:
         f4:98:86:d1:d0:ad:87:19:40:92:03:9a:61:f5:50:0b:88:15:
         53:62:7c:cd:5b:f4:e9:ef:5a:6d:d1:b3:c3:54:ae:d8:15:9a:
         b9:2b:64:f5:70:b4:c7:78:79:a8:54:db:15:a2:f3:b0:02:46:
         52:be:e9:bc:81:fa:05:73:32:c7:50:e0:d5:6f:04:de:b8:39:
         c0:14:85:e3:e0:df:2c:e3:4e:1f:7c:d6:92:77:ef:61:5f:c1:
         b2:32:52:49:19:fe:8a:03:bd:c2:4b:f1:37:e1:f3:dc:49:ac:
         a0:c5:57:8f:1f:9c:25:3a:a9:5b:ec:09:cf:f3:f7:0e:74:c2:
         88:3b:92:c3:44:27:b4:57:fa:70:c3:67:25:f9:aa:89:a8:bd:
         c0:b8:b8:87:08:61:cd:d2:90:ce:b7:2a:8b:a1:bf:c2:17:6f:
         d7:39:b7:9b:0c:be:4b:86:77:b4:ea:1c:8f:de:d6:5e:0e:30:
         55:1d:2f:d6:14:32:de:5a:77:7f:78:2b:07:7b:59:29:c0:3f:
         6c:89:93:7d:7e:3a:ad:4d:1b:e0:03:e7:7a:4d:0c:fe:26:0a:
         4a:60:e1:fc:13:be:18:f5:e4:6d:87:fb:6d:91:6a:35:1c:0a:
         3a:a3:92:47:22:82:fe:34:55:a5:cb:bc:56:0d:2e:69:63:c3:
         8b:a9:2a:10:c9:1f:21:93:44:ee:2c:c8:a5:6e:85:58:eb:53:
         8d:d2:2f:75:4e:fa:c4:f8
-----BEGIN CERTIFICATE-----
MIIF4DCCA8igAwIBAgIBATANBgkqhkiG9w0BAQ0FADB1MQswCQYDVQQGEwJDWjEP
MA0GA1UEBxMGUm96bm92MRcwFQYDVQQKEw5TaWduRXZlcnlUaGluZzEhMB8GA1UE
AxMYU2lnbiBFdmVyeSBUaGluZywgcy5yLm8uMRkwFwYJKoZIhvcNAQkBFgpzZXRA
aW9sLmN6MB4XDTE1MDUwODE4MzgwMFoXDTI1MDUwNzE4MzgwMFowgYgxCzAJBgNV
BAYTAkVOMRIwEAYDVQQHEwlDYW1icmlkZ2UxHDAaBgNVBAoTE09iamVjdFNlY3Vy
aXR5IEx0ZC4xHzAdBgNVBAMTFnd3dy5vYmplY3RzZWN1cml0eS5jb20xJjAkBgkq
hkiG9w0BCQEWF2luZm9Ab2JqZWN0c2VjdXJpdHkuY29tMIICIjANBgkqhkiG9w0B
AQEFAAOCAg8AMIICCgKCAgEA3YyvD3AQcjGEgjqCgxhhUNm0AMlpCG+ib/RVwgyJ
mULRIDvyVxSP1REr6JmH+8dH2ofkiteZGHp+LxQIRbvyHPDGReRpWF/GSwM8VXqO
y4EFSkohrqvrDfIDZ26StASMVNmgjDBWIRLcPrnNQZrzNfUHwxII7115bkQ6cZQr
Le3gjkuZuXos7QUKf260yqcdLuMPffS09psVNWeiivoxAmgv/YTudkuwdzq9cYg3
CXv97RpOAPZdEiKW0X17lS47F8Efk7JYs/5LeQREGhVVP3WKDmOnIeStHVdXfD6Q
7EatEOMxPmL9vmWnjh5VR6zCH7IyfquW2+AAGg/9692iUNnhwe3Up54OGrc7Xn1Z
iVZ5D6fMaA6TNvlcxdWdUfLEMEnzz8i7fc295kfg31CSZIFPoa1V1w0iigmqnctf
GvVWdcF8pXFmamEXeTWBPjSgGoVKOVooc8RqGN32Docr4r42klYMDX4HECgrhY44
orhaSRiLAt94HADNYiVmK/9AJDVYw3Y1lMfO15ZYkXKMJhi6WZACZNwxKKJNC101
/JqhiRrhCzNQ7UQbHL4n4q00mG/YEruPgVOfunpPtx1+LG9xCTHIFcws9+BFvrTB
yH4tY1XDrqoHvR9bNDZedhYTN1aRvVu3XUzH3k6PS0RMgfHvFOpYBxPs3Qjrz6Yi
G/MCAwEAAaNnMGUwHwYDVR0jBBgwFoAUP8iE9GDhbLKcd6oAqpR1fZIQn2wwNAYD
VR0lBC0wKwYIKwYBBQUHAwEGCCsGAQUFBwMCBgorBgEEAYI3CgMDBglghkgBhvhC
BAEwDAYDVR0TAQH/BAIwADANBgkqhkiG9w0BAQ0FAAOCAgEAeu2BoOpQ4mamP2Zs
2HWdltwO9GdUGMuPCCII+i8UblLHB5tpfFsamDuy6EQBGV39SSWeRscYyngj7SVs
YVKhfQ7wcy0WOfcOsG31ArlXjfjey7JI5K7x6rMA4h8aNGUZ0WXfOiFgH94E0mum
fAPDTJc6dzr3YIScVxp48eyvhKlX6L13nHj+5JdVR4chX+L65fd1EFCS3EB9N/ua
+FnC9hDYKJBd5KN1DrEfHHsBDPLsUQ3q0J3OPrtRJARiEHX9YWMRQKfsK8FmfBmo
DosRwAN4KBKN5QlTpLHOCt1plXdkgED5DSeucRhj9JiG0dCthxlAkgOaYfVQC4gV
U2J8zVv06e9abdGzw1Su2BWauStk9XC0x3h5qFTbFaLzsAJGUr7pvIH6BXMyx1Dg
1W8E3rg5wBSF4+DfLONOH3zWknfvYV/BsjJSSRn+igO9wkvxN+Hz3EmsoMVXjx+c
JTqpW+wJz/P3DnTCiDuSw0QntFf6cMNnJfmqiai9wLi4hwhhzdKQzrcqi6G/whdv
1zm3mwy+S4Z3tOocj97WXg4wVR0v1hQy3lp3f3grB3tZKcA/bImTfX46rU0b4APn
ek0M/iYKSmDh/BO+GPXkbYf7bZFqNRwKOqOSRyKC/jRVpcu8Vg0uaWPDi6kqEMkf
IZNE7izIpW6FWOtTjdIvdU76xPg=
-----END CERTIFICATE-----
