Certificate:
    Data:
        Version: 3 (0x2)
        Serial Number: 2 (0x2)
    Signature Algorithm: sha512WithRSAEncryption
        Issuer: C=CZ, L=Roznov, O=SignEveryThing, CN=Sign Every Thing, s.r.o./emailAddress=set@iol.cz
        Validity
            Not Before: May  8 18:41:35 2015 GMT
            Not After : May  7 18:41:35 2025 GMT
        Subject: CN=Karel Gardas/emailAddress=kgardas@objectsecurity.com
        Subject Public Key Info:
            Public Key Algorithm: rsaEncryption
                Public-Key: (4096 bit)
                Modulus:
                    00:a7:b0:19:f2:df:14:4a:61:2a:03:ed:df:0a:1d:
                    42:3f:d2:7f:48:e3:6b:a1:49:e6:cd:67:74:bc:81:
                    ae:2a:07:64:04:d1:06:a2:c1:92:03:bd:e3:b6:f6:
                    7d:fe:d3:f1:fd:5b:ea:6a:39:59:43:a8:72:24:27:
                    95:ab:5e:e6:a8:d1:a7:e7:48:45:a3:55:16:13:28:
                    1e:39:81:18:cc:be:2e:eb:ab:b5:56:c8:3a:f5:c1:
                    1a:4a:c5:1f:af:93:e2:88:a0:da:e6:0a:81:90:f1:
                    d6:df:50:9f:9a:de:d4:85:02:5f:25:85:5a:e0:73:
                    7f:26:d7:d0:ef:32:4c:11:21:6d:8f:1b:68:be:60:
                    58:b1:1e:0e:29:b5:b8:0d:76:57:d8:ba:58:cb:93:
                    f6:a0:99:e4:6d:e4:05:4d:41:33:be:f0:36:c0:df:
                    ce:77:f3:b7:15:f7:d8:33:30:16:ec:ae:54:2f:56:
                    48:68:6b:16:5c:ef:f5:a7:5a:ae:8b:97:d8:99:44:
                    25:db:61:e8:55:01:d9:30:16:7c:9e:f5:d7:1f:3f:
                    d8:3d:0b:a5:20:c2:ac:38:fa:74:65:a8:91:fa:01:
                    8e:25:40:b7:40:c2:5c:0d:82:71:23:52:fc:7e:97:
                    c4:a0:81:63:aa:76:75:af:a1:8a:18:6e:5c:a2:da:
                    cd:9a:9c:59:7b:8e:31:09:03:0e:92:13:6f:eb:e9:
                    2d:96:62:50:36:e8:70:92:35:68:e2:cb:fd:37:59:
                    09:1d:77:51:2e:91:07:81:b7:68:3d:55:72:db:0c:
                    f8:3c:82:11:93:68:69:86:79:f7:5a:7c:50:4d:66:
                    d3:58:f0:d6:13:f8:88:c9:68:69:c6:94:70:41:d3:
                    5e:50:de:01:05:56:fe:5c:39:b8:e6:f9:f3:b7:e4:
                    ef:df:69:95:a8:06:d6:e0:f3:f0:37:a8:38:c5:bf:
                    e4:f7:44:c3:50:00:c6:66:5e:7b:97:ff:b2:8c:1f:
                    01:54:d7:e1:88:33:64:7f:b9:04:f9:e0:27:68:f3:
                    41:bb:2c:4f:87:70:87:44:b7:12:f5:77:b4:17:40:
                    71:60:92:00:19:4c:47:15:aa:8f:13:95:d7:b8:03:
                    ec:0c:2f:1d:74:bd:25:d9:a1:01:e5:f3:4f:6b:85:
                    b9:30:ce:04:53:1f:33:96:27:93:8d:cd:75:f4:cd:
                    66:da:8b:8f:a1:1d:33:75:1f:32:0f:5b:ab:2b:73:
                    89:29:81:85:2a:d1:20:8f:aa:95:be:97:18:87:da:
                    bf:92:2c:ba:50:33:e8:0c:8c:ab:9d:e6:b0:9d:da:
                    fe:4d:03:36:5e:d8:81:20:04:41:2c:06:5a:e9:e7:
                    69:77:85
                Exponent: 65537 (0x10001)
        X509v3 extensions:
            X509v3 Subject Alternative Name: 
                email:kgardas@objectsecurity.com
            X509v3 Basic Constraints: critical
                CA:FALSE
            X509v3 Authority Key Identifier: 
                keyid:3F:C8:84:F4:60:E1:6C:B2:9C:77:AA:00:AA:94:75:7D:92:10:9F:6C

            X509v3 Extended Key Usage: 
                TLS Web Client Authentication, E-mail Protection
    Signature Algorithm: sha512WithRSAEncryption
         86:61:5b:7b:d8:f5:0b:9c:71:fa:b4:58:0a:67:9f:98:a9:9f:
         34:04:0d:b3:68:02:91:56:29:13:f9:e7:d4:8b:64:78:73:ed:
         94:26:12:b6:0d:63:e9:89:2f:56:07:ac:50:87:3b:64:b9:85:
         46:59:4d:b4:e8:9f:c7:13:09:8e:0d:15:27:1c:ae:08:e3:b1:
         2d:b1:4d:a5:18:5d:69:97:ca:4b:2d:4a:e7:2d:2a:c9:4f:99:
         9b:13:c4:d0:30:aa:8c:a9:72:de:82:7f:02:48:05:78:12:f2:
         a9:fa:d2:64:94:e2:7a:46:23:32:3c:90:f1:be:cb:f0:dc:c3:
         3c:f5:ed:90:cd:e8:fd:3b:5d:1a:d5:c2:bb:18:f0:ea:7d:38:
         d2:54:a1:94:ed:80:b7:71:82:62:57:6d:69:41:09:17:49:29:
         e9:95:15:f3:d6:34:9b:2a:2e:56:b8:cd:10:5e:d2:90:a1:c3:
         c7:a1:63:08:de:ca:4d:84:33:9e:d6:f4:a8:d4:f6:9b:a0:ca:
         0b:e6:8c:10:87:1e:3c:92:0c:d7:08:ab:ab:d4:c4:b4:66:2c:
         ad:21:9c:91:33:3c:cd:63:3a:1f:f9:ad:00:90:f2:f7:d6:ae:
         6b:c0:fb:6b:50:69:5a:0e:d8:8c:41:f8:44:50:81:df:b6:6b:
         ea:87:57:2e:b5:9a:9b:0d:91:31:95:df:84:c3:f8:ef:a2:72:
         40:38:14:26:da:d2:01:c6:7d:4f:88:56:e0:a0:7b:53:64:50:
         a3:bd:fd:74:32:2f:75:3b:45:af:30:7e:1c:63:02:ea:5a:57:
         da:60:fe:97:ae:bf:3c:d8:19:c9:5b:c6:60:2e:14:f7:34:70:
         4d:48:4e:e9:a9:41:ea:e6:25:5d:33:25:77:12:6a:c9:c9:cb:
         97:3b:fe:2a:c5:18:00:ce:da:bd:90:63:b4:71:de:1e:24:a9:
         3d:83:ca:cb:04:34:3e:9e:1b:37:59:d0:20:b0:39:dc:05:73:
         31:39:19:09:fc:7c:04:8d:c9:c2:16:b1:cd:6c:cd:cf:29:a5:
         d3:e0:47:16:a1:04:60:9d:51:5a:ce:48:35:7e:5d:b9:31:1e:
         a6:bb:2d:9f:f2:8e:8f:c7:5c:00:ef:55:9d:62:17:8f:67:be:
         4c:17:60:9f:57:f6:40:8f:2b:5c:fc:57:d5:3e:54:86:b7:1c:
         45:ea:ba:d2:06:64:77:82:3b:e2:bd:bf:31:e6:90:21:f9:33:
         aa:68:5a:70:ed:fc:fb:f9:4b:0e:80:87:b2:e3:a6:90:83:43:
         3f:54:83:b2:4e:bf:d6:25:f6:85:25:2c:14:37:cc:eb:5f:7f:
         58:77:83:7a:a3:e8:4b:10
-----BEGIN CERTIFICATE-----
MIIFqTCCA5GgAwIBAgIBAjANBgkqhkiG9w0BAQ0FADB1MQswCQYDVQQGEwJDWjEP
MA0GA1UEBxMGUm96bm92MRcwFQYDVQQKEw5TaWduRXZlcnlUaGluZzEhMB8GA1UE
AxMYU2lnbiBFdmVyeSBUaGluZywgcy5yLm8uMRkwFwYJKoZIhvcNAQkBFgpzZXRA
aW9sLmN6MB4XDTE1MDUwODE4NDEzNVoXDTI1MDUwNzE4NDEzNVowQjEVMBMGA1UE
AxMMS2FyZWwgR2FyZGFzMSkwJwYJKoZIhvcNAQkBFhprZ2FyZGFzQG9iamVjdHNl
Y3VyaXR5LmNvbTCCAiIwDQYJKoZIhvcNAQEBBQADggIPADCCAgoCggIBAKewGfLf
FEphKgPt3wodQj/Sf0jja6FJ5s1ndLyBrioHZATRBqLBkgO947b2ff7T8f1b6mo5
WUOociQnlate5qjRp+dIRaNVFhMoHjmBGMy+LuurtVbIOvXBGkrFH6+T4oig2uYK
gZDx1t9Qn5re1IUCXyWFWuBzfybX0O8yTBEhbY8baL5gWLEeDim1uA12V9i6WMuT
9qCZ5G3kBU1BM77wNsDfznfztxX32DMwFuyuVC9WSGhrFlzv9adarouX2JlEJdth
6FUB2TAWfJ711x8/2D0LpSDCrDj6dGWokfoBjiVAt0DCXA2CcSNS/H6XxKCBY6p2
da+hihhuXKLazZqcWXuOMQkDDpITb+vpLZZiUDbocJI1aOLL/TdZCR13US6RB4G3
aD1VctsM+DyCEZNoaYZ591p8UE1m01jw1hP4iMloacaUcEHTXlDeAQVW/lw5uOb5
87fk799plagG1uDz8DeoOMW/5PdEw1AAxmZee5f/sowfAVTX4YgzZH+5BPngJ2jz
QbssT4dwh0S3EvV3tBdAcWCSABlMRxWqjxOV17gD7AwvHXS9JdmhAeXzT2uFuTDO
BFMfM5Ynk43NdfTNZtqLj6EdM3UfMg9bqytziSmBhSrRII+qlb6XGIfav5IsulAz
6AyMq53msJ3a/k0DNl7YgSAEQSwGWunnaXeFAgMBAAGjdzB1MCUGA1UdEQQeMByB
GmtnYXJkYXNAb2JqZWN0c2VjdXJpdHkuY29tMAwGA1UdEwEB/wQCMAAwHwYDVR0j
BBgwFoAUP8iE9GDhbLKcd6oAqpR1fZIQn2wwHQYDVR0lBBYwFAYIKwYBBQUHAwIG
CCsGAQUFBwMEMA0GCSqGSIb3DQEBDQUAA4ICAQCGYVt72PULnHH6tFgKZ5+YqZ80
BA2zaAKRVikT+efUi2R4c+2UJhK2DWPpiS9WB6xQhztkuYVGWU206J/HEwmODRUn
HK4I47EtsU2lGF1pl8pLLUrnLSrJT5mbE8TQMKqMqXLegn8CSAV4EvKp+tJklOJ6
RiMyPJDxvsvw3MM89e2Qzej9O10a1cK7GPDqfTjSVKGU7YC3cYJiV21pQQkXSSnp
lRXz1jSbKi5WuM0QXtKQocPHoWMI3spNhDOe1vSo1PaboMoL5owQhx48kgzXCKur
1MS0ZiytIZyRMzzNYzof+a0AkPL31q5rwPtrUGlaDtiMQfhEUIHftmvqh1cutZqb
DZExld+Ew/jvonJAOBQm2tIBxn1PiFbgoHtTZFCjvf10Mi91O0WvMH4cYwLqWlfa
YP6Xrr882BnJW8ZgLhT3NHBNSE7pqUHq5iVdMyV3EmrJycuXO/4qxRgAztq9kGO0
cd4eJKk9g8rLBDQ+nhs3WdAgsDncBXMxORkJ/HwEjcnCFrHNbM3PKaXT4EcWoQRg
nVFazkg1fl25MR6muy2f8o6Px1wA71WdYhePZ75MF2CfV/ZAjytc/FfVPlSGtxxF
6rrSBmR3gjvivb8x5pAh+TOqaFpw7fz7+UsOgIey46aQg0M/VIOyTr/WJfaFJSwU
N8zrX39Yd4N6o+hLEA==
-----END CERTIFICATE-----
