Certificate:
    Data:
        Version: 3 (0x2)
        Serial Number:
            a3:2d:57:70:88:89:1e:f1
    Signature Algorithm: sha256WithRSAEncryption
        Issuer: C=US, ST=Washington, O=Boeing, OU=MDOPT Engineering, CN=mdopt.sea.boeing.com/emailAddress=stephen.t.ledoux@boeing.com
        Validity
            Not Before: Oct 28 00:07:06 2021 GMT
            Not After : Oct 26 00:07:06 2031 GMT
        Subject: C=US, ST=Washington, L=Seattle, O=Boeing, OU=MDOPT Engineering, CN=mdopt.sea.boeing.com/emailAddress=stephen.t.ledoux@boeing.com
        Subject Public Key Info:
            Public Key Algorithm: rsaEncryption
                Public-Key: (2048 bit)
                Modulus:
                    00:ef:46:a0:e3:01:f8:8c:8a:a8:96:08:48:83:41:
                    a9:c5:86:09:99:9e:46:40:f2:13:63:c6:92:98:6d:
                    eb:f0:3a:89:94:31:c1:0d:e7:cc:31:8b:6b:17:82:
                    5b:aa:e5:69:ff:b6:49:f2:a3:21:f4:75:e8:bd:3b:
                    b9:84:f1:38:4d:8a:94:2f:ed:aa:46:d8:00:2b:93:
                    fc:55:fa:fb:1e:e5:b5:24:71:c9:18:5a:7e:9f:53:
                    d8:c2:be:4c:43:df:ff:2c:ba:6a:80:75:f1:82:50:
                    3f:b5:26:3e:e2:88:80:9a:f9:a5:13:2f:9a:ba:b7:
                    57:42:3a:b1:dc:aa:21:e7:c3:64:06:f2:a8:8b:cc:
                    d2:07:3d:40:dd:21:b0:95:41:e2:23:ca:6d:76:04:
                    77:89:96:5c:ec:ba:de:97:05:e0:9a:f5:9e:13:d8:
                    65:a0:3c:3f:be:9f:ab:1f:9d:e7:0f:a3:c0:a3:f1:
                    90:5b:15:23:01:b3:69:1f:47:9e:46:d6:4d:ec:8d:
                    7e:ab:1b:d0:cf:54:96:09:92:de:d8:bb:a7:99:c0:
                    d8:36:02:92:00:ba:a0:70:35:32:d6:43:91:88:47:
                    04:91:ca:2c:b6:41:6d:e5:39:c2:c3:19:da:8f:48:
                    8a:e6:f3:17:2d:dd:f3:e0:e9:71:43:63:98:e8:ef:
                    c6:77
                Exponent: 65537 (0x10001)
        X509v3 extensions:
            X509v3 Basic Constraints: 
                CA:FALSE
            Netscape Comment: 
                OpenSSL Generated Certificate
            X509v3 Subject Key Identifier: 
                C6:30:5F:A2:93:15:1C:2D:30:00:83:1F:B3:F3:C2:60:7C:A6:C7:56
            X509v3 Authority Key Identifier: 
                keyid:75:E9:FF:42:50:43:88:B7:AF:0D:F5:2C:6F:60:9A:3D:B8:BC:BA:B6

    Signature Algorithm: sha256WithRSAEncryption
         27:61:e6:29:25:55:b6:2b:a8:2c:a4:d8:65:c4:8a:75:2a:8f:
         96:de:d5:7e:6e:e6:80:29:02:3e:a2:83:d8:5a:f6:77:87:d5:
         f4:5f:82:18:4e:2a:1a:0a:d2:18:49:0d:9a:d2:f8:a8:6b:d6:
         cf:3c:15:fd:80:31:f2:69:cd:8c:58:14:a9:45:79:24:bc:a7:
         82:1c:46:7e:51:0f:88:f3:70:32:72:38:68:7e:b5:be:e4:95:
         25:9a:f0:a9:ef:06:cd:2c:b2:c2:2b:1d:1b:62:2d:75:ad:c1:
         7f:69:60:8a:d2:e7:16:0c:13:bc:82:94:16:82:0b:6c:44:45:
         43:b2:49:5f:a4:16:8d:19:61:af:20:35:8d:af:07:84:9c:e0:
         b0:b1:5e:26:db:79:54:dc:d6:47:c0:1e:ff:f6:e7:9e:f6:26:
         de:ba:dc:76:68:e8:89:16:b9:c9:bd:58:1e:7a:db:0a:b9:ae:
         bc:01:64:9e:c7:87:85:ae:48:3a:2b:78:67:e5:34:fb:5f:64:
         54:19:ac:79:c1:5b:35:5a:16:1d:d9:12:1a:75:19:28:7e:8b:
         09:e3:7a:ef:af:7f:f5:3a:e5:18:f2:6c:5e:a9:41:1f:2b:78:
         ae:c1:d5:d1:91:74:b8:25:da:b2:2c:81:5f:c0:d1:c3:a8:08:
         f9:82:0b:01
-----BEGIN CERTIFICATE-----
MIIERjCCAy6gAwIBAgIJAKMtV3CIiR7xMA0GCSqGSIb3DQEBCwUAMIGaMQswCQYD
VQQGEwJVUzETMBEGA1UECAwKV2FzaGluZ3RvbjEPMA0GA1UECgwGQm9laW5nMRow
GAYDVQQLDBFNRE9QVCBFbmdpbmVlcmluZzEdMBsGA1UEAwwUbWRvcHQuc2VhLmJv
ZWluZy5jb20xKjAoBgkqhkiG9w0BCQEWG3N0ZXBoZW4udC5sZWRvdXhAYm9laW5n
LmNvbTAeFw0yMTEwMjgwMDA3MDZaFw0zMTEwMjYwMDA3MDZaMIGsMQswCQYDVQQG
EwJVUzETMBEGA1UECAwKV2FzaGluZ3RvbjEQMA4GA1UEBwwHU2VhdHRsZTEPMA0G
A1UECgwGQm9laW5nMRowGAYDVQQLDBFNRE9QVCBFbmdpbmVlcmluZzEdMBsGA1UE
AwwUbWRvcHQuc2VhLmJvZWluZy5jb20xKjAoBgkqhkiG9w0BCQEWG3N0ZXBoZW4u
dC5sZWRvdXhAYm9laW5nLmNvbTCCASIwDQYJKoZIhvcNAQEBBQADggEPADCCAQoC
ggEBAO9GoOMB+IyKqJYISINBqcWGCZmeRkDyE2PGkpht6/A6iZQxwQ3nzDGLaxeC
W6rlaf+2SfKjIfR16L07uYTxOE2KlC/tqkbYACuT/FX6+x7ltSRxyRhafp9T2MK+
TEPf/yy6aoB18YJQP7UmPuKIgJr5pRMvmrq3V0I6sdyqIefDZAbyqIvM0gc9QN0h
sJVB4iPKbXYEd4mWXOy63pcF4Jr1nhPYZaA8P76fqx+d5w+jwKPxkFsVIwGzaR9H
nkbWTeyNfqsb0M9UlgmS3ti7p5nA2DYCkgC6oHA1MtZDkYhHBJHKLLZBbeU5wsMZ
2o9IiubzFy3d8+DpcUNjmOjvxncCAwEAAaN7MHkwCQYDVR0TBAIwADAsBglghkgB
hvhCAQ0EHxYdT3BlblNTTCBHZW5lcmF0ZWQgQ2VydGlmaWNhdGUwHQYDVR0OBBYE
FMYwX6KTFRwtMACDH7PzwmB8psdWMB8GA1UdIwQYMBaAFHXp/0JQQ4i3rw31LG9g
mj24vLq2MA0GCSqGSIb3DQEBCwUAA4IBAQAnYeYpJVW2K6gspNhlxIp1Ko+W3tV+
buaAKQI+ooPYWvZ3h9X0X4IYTioaCtIYSQ2a0vioa9bPPBX9gDHyac2MWBSpRXkk
vKeCHEZ+UQ+I83AycjhofrW+5JUlmvCp7wbNLLLCKx0bYi11rcF/aWCK0ucWDBO8
gpQWggtsREVDsklfpBaNGWGvIDWNrweEnOCwsV4m23lU3NZHwB7/9uee9ibeutx2
aOiJFrnJvVgeetsKua68AWSex4eFrkg6K3hn5TT7X2RUGax5wVs1WhYd2RIadRko
fosJ43rvr3/1OuUY8mxeqUEfK3iuwdXRkXS4JdqyLIFfwNHDqAj5ggsB
-----END CERTIFICATE-----
